target datalayout = "e-m:e-p270:32:32-p271:32:32-p272:64:64-i64:64-i128:128-f80:128-n8:16:32:64-S128"
target triple = "x86_64-pc-linux-gnu"

%struct.anon = type { i32, i32 }
%union.ImGL3WProcs = type { [59 x ptr] }
%struct.anon.0 = type { ptr, ptr, ptr, ptr, ptr, ptr, ptr, ptr, ptr, ptr, ptr, ptr, ptr, ptr, ptr, ptr, ptr, ptr, ptr, ptr, ptr, ptr, ptr, ptr, ptr, ptr, ptr, ptr, ptr, ptr, ptr, ptr, ptr, ptr, ptr, ptr, ptr, ptr, ptr, ptr, ptr, ptr, ptr, ptr, ptr, ptr, ptr, ptr, ptr, ptr, ptr, ptr, ptr, ptr, ptr, ptr, ptr, ptr, ptr }

@_ZL7version = internal global %struct.anon zeroinitializer, align 4
@imgl3wProcs = dso_local global %union.ImGL3WProcs zeroinitializer, align 8
@.str.3 = private unnamed_addr constant [6 x i8] c"%d.%d\00", align 1

; Function Attrs: mustprogress uwtable
define internal noundef i32 @_ZL13parse_versionv() #0 {
  %1 = alloca i32, align 4
  %2 = alloca ptr, align 8
  %3 = load ptr, ptr getelementptr inbounds nuw (%struct.anon.0, ptr @imgl3wProcs, i32 0, i32 34), align 8, !tbaa !14
  %4 = icmp ne ptr %3, null
  br i1 %4, label %6, label %5

5:                                                ; preds = %0
  store i32 -1, ptr %1, align 4
  br label %28

6:                                                ; preds = %0
  %7 = load ptr, ptr getelementptr inbounds nuw (%struct.anon.0, ptr @imgl3wProcs, i32 0, i32 34), align 8, !tbaa !14
  call void %7(i32 noundef 33307, ptr noundef @_ZL7version)
  %8 = load ptr, ptr getelementptr inbounds nuw (%struct.anon.0, ptr @imgl3wProcs, i32 0, i32 34), align 8, !tbaa !14
  call void %8(i32 noundef 33308, ptr noundef getelementptr inbounds nuw (%struct.anon, ptr @_ZL7version, i32 0, i32 1))
  %9 = load i32, ptr @_ZL7version, align 4, !tbaa !17
  %10 = icmp eq i32 %9, 0
  br i1 %10, label %11, label %23

11:                                               ; preds = %6
  %12 = load i32, ptr getelementptr inbounds nuw (%struct.anon, ptr @_ZL7version, i32 0, i32 1), align 4, !tbaa !19
  %13 = icmp eq i32 %12, 0
  br i1 %13, label %14, label %23

14:                                               ; preds = %11
  call void @llvm.lifetime.start.p0(i64 8, ptr %2) #11
  %15 = load ptr, ptr getelementptr inbounds nuw (%struct.anon.0, ptr @imgl3wProcs, i32 0, i32 39), align 8, !tbaa !14
  %16 = call noundef ptr %15(i32 noundef 7938)
  store ptr %16, ptr %2, align 8, !tbaa !10
  %17 = load ptr, ptr %2, align 8, !tbaa !10
  %18 = icmp ne ptr %17, null
  br i1 %18, label %19, label %22

19:                                               ; preds = %14
  %20 = load ptr, ptr %2, align 8, !tbaa !10
  %21 = call i32 (ptr, ptr, ...) @__isoc99_sscanf(ptr noundef %20, ptr noundef @.str.3, ptr noundef @_ZL7version, ptr noundef getelementptr inbounds nuw (%struct.anon, ptr @_ZL7version, i32 0, i32 1)) #11
  br label %22

22:                                               ; preds = %19, %14
  call void @llvm.lifetime.end.p0(i64 8, ptr %2) #11
  br label %23

23:                                               ; preds = %22, %11, %6
  %24 = load i32, ptr @_ZL7version, align 4, !tbaa !17
  %25 = icmp slt i32 %24, 2
  br i1 %25, label %26, label %27

26:                                               ; preds = %23
  store i32 -3, ptr %1, align 4
  br label %28

27:                                               ; preds = %23
  store i32 0, ptr %1, align 4
  br label %28

28:                                               ; preds = %27, %26, %5
  %29 = load i32, ptr %1, align 4
  ret i32 %29
}

; Function Attrs: mustprogress uwtable
define internal void @_ZL10load_procsPFPFvvEPKcE(ptr noundef %0) #0 {
  %2 = alloca ptr, align 8
  %3 = alloca i64, align 8
  store ptr %0, ptr %2, align 8, !tbaa !8
  call void @llvm.lifetime.start.p0(i64 8, ptr %3) #11
  store i64 0, ptr %3, align 8, !tbaa !12
  br label %4

4:                                                ; preds = %15, %1
  %5 = load i64, ptr %3, align 8, !tbaa !12
  %6 = icmp ult i64 %5, 59
  br i1 %6, label %7, label %18

7:                                                ; preds = %4
  %8 = load ptr, ptr %2, align 8, !tbaa !8
  %9 = load i64, ptr %3, align 8, !tbaa !12
  %10 = getelementptr inbounds nuw [59 x ptr], ptr @_ZL10proc_names, i64 0, i64 %9
  %11 = load ptr, ptr %10, align 8, !tbaa !10
  %12 = call noundef ptr %8(ptr noundef %11)
  %13 = load i64, ptr %3, align 8, !tbaa !12
  %14 = getelementptr inbounds nuw [59 x ptr], ptr @imgl3wProcs, i64 0, i64 %13
  store ptr %12, ptr %14, align 8, !tbaa !14
  br label %15

15:                                               ; preds = %7
  %16 = load i64, ptr %3, align 8, !tbaa !12
  %17 = add i64 %16, 1
  store i64 %17, ptr %3, align 8, !tbaa !12
  br label %4, !llvm.loop !15

18:                                               ; preds = %4
  call void @llvm.lifetime.end.p0(i64 8, ptr %3) #11
  ret void
}

; Function Attrs: mustprogress uwtable
define dso_local i32 @imgl3wInit2(ptr noundef %0) #0 {
  %2 = alloca ptr, align 8
  store ptr %0, ptr %2, align 8, !tbaa !8
  %3 = load ptr, ptr %2, align 8, !tbaa !8
  call void @_ZL10load_procsPFPFvvEPKcE(ptr noundef %3)
  %4 = call noundef i32 @_ZL13parse_versionv()
  ret i32 %4
}