; Function Attrs: mustprogress uwtable
define dso_local range(i32 -3, 1) i32 @imgl3wInit2(ptr noundef readonly captures(none) %0) local_unnamed_addr #0 {
  br label %2

2:                                                ; preds = %2, %1
  %.04.i = phi i64 [ 0, %1 ], [ %7, %2 ]
  %3 = getelementptr inbounds nuw [59 x ptr], ptr @_ZL10proc_names, i64 0, i64 %.04.i
  %4 = load ptr, ptr %3, align 8, !tbaa !8
  %5 = tail call noundef ptr %0(ptr noundef %4)
  %6 = getelementptr inbounds nuw [59 x ptr], ptr @imgl3wProcs, i64 0, i64 %.04.i
  store ptr %5, ptr %6, align 8, !tbaa !10
  %7 = add nuw nsw i64 %.04.i, 1
  %exitcond.not.i = icmp eq i64 %7, 59
  br i1 %exitcond.not.i, label %_ZL10load_procsPFPFvvEPKcE.exit, label %2, !llvm.loop !11

_ZL10load_procsPFPFvvEPKcE.exit:                  ; preds = %2
  %8 = load ptr, ptr getelementptr inbounds nuw (i8, ptr @imgl3wProcs, i64 272), align 8, !tbaa !10
  %.not.i = icmp eq ptr %8, null
  br i1 %.not.i, label %_ZL13parse_versionv.exit, label %9

9:                                                ; preds = %_ZL10load_procsPFPFvvEPKcE.exit
  tail call void %8(i32 noundef 33307, ptr noundef nonnull @_ZL7version)
  %10 = load ptr, ptr getelementptr inbounds nuw (i8, ptr @imgl3wProcs, i64 272), align 8, !tbaa !10
  tail call void %10(i32 noundef 33308, ptr noundef nonnull getelementptr inbounds nuw (i8, ptr @_ZL7version, i64 4))
  %11 = load i32, ptr @_ZL7version, align 4, !tbaa !13
  %12 = icmp eq i32 %11, 0
  %13 = load i32, ptr getelementptr inbounds nuw (i8, ptr @_ZL7version, i64 4), align 4
  %14 = icmp eq i32 %13, 0
  %or.cond.i = select i1 %12, i1 %14, i1 false
  br i1 %or.cond.i, label %15, label %20

15:                                               ; preds = %9
  %16 = load ptr, ptr getelementptr inbounds nuw (i8, ptr @imgl3wProcs, i64 312), align 8, !tbaa !10
  %17 = tail call noundef ptr %16(i32 noundef 7938)
  %.not5.i = icmp eq ptr %17, null
  br i1 %.not5.i, label %20, label %18

18:                                               ; preds = %15
  %19 = tail call i32 (ptr, ptr, ...) @__isoc99_sscanf(ptr noundef nonnull %17, ptr noundef nonnull @.str.3, ptr noundef nonnull @_ZL7version, ptr noundef nonnull getelementptr inbounds nuw (i8, ptr @_ZL7version, i64 4)) #17
  br label %20

20:                                               ; preds = %18, %15, %9
  %21 = load i32, ptr @_ZL7version, align 4, !tbaa !13
  %22 = icmp slt i32 %21, 2
  %..i = select i1 %22, i32 -3, i32 0
  br label %_ZL13parse_versionv.exit

_ZL13parse_versionv.exit:                         ; preds = %_ZL10load_procsPFPFvvEPKcE.exit, %20
  %.0.i = phi i32 [ -1, %_ZL10load_procsPFPFvvEPKcE.exit ], [ %..i, %20 ]
  ret i32 %.0.i
}